; Function Attrs: nounwind uwtable
define hidden i32 @exr_attr_list_find_by_name(ptr noundef %0, ptr noundef readonly %1, ptr noundef readonly %2, ptr noundef writeonly %3) local_unnamed_addr #3 {
  %.not = icmp eq ptr %0, null
  br i1 %.not, label %51, label %5

5:                                                ; preds = %4
  %.not47 = icmp eq ptr %3, null
  br i1 %.not47, label %6, label %10

6:                                                ; preds = %5
  %7 = getelementptr inbounds nuw i8, ptr %0, i64 64
  %8 = load ptr, ptr %7, align 8, !tbaa !33
  %9 = tail call i32 %8(ptr noundef nonnull %0, i32 noundef 3, ptr noundef nonnull @.str.3) #9
  br label %51

10:                                               ; preds = %5
  %.not48 = icmp eq ptr %2, null
  br i1 %.not48, label %14, label %11

11:                                               ; preds = %10
  %12 = load i8, ptr %2, align 1, !tbaa !32
  %13 = icmp eq i8 %12, 0
  br i1 %13, label %14, label %18

14:                                               ; preds = %11, %10
  %15 = getelementptr inbounds nuw i8, ptr %0, i64 64
  %16 = load ptr, ptr %15, align 8, !tbaa !33
  %17 = tail call i32 %16(ptr noundef nonnull %0, i32 noundef 3, ptr noundef nonnull @.str.4) #9
  br label %51

18:                                               ; preds = %11
  %.not49 = icmp eq ptr %1, null
  br i1 %.not49, label %19, label %23

19:                                               ; preds = %18
  %20 = getelementptr inbounds nuw i8, ptr %0, i64 64
  %21 = load ptr, ptr %20, align 8, !tbaa !33
  %22 = tail call i32 %21(ptr noundef nonnull %0, i32 noundef 3, ptr noundef nonnull @.str.5) #9
  br label %51

23:                                               ; preds = %18
  %24 = getelementptr inbounds nuw i8, ptr %1, i64 16
  %25 = load ptr, ptr %24, align 8, !tbaa !60
  %.not50 = icmp eq ptr %25, null
  br i1 %.not50, label %51, label %26

26:                                               ; preds = %23
  %27 = load i32, ptr %1, align 8, !tbaa !16
  %28 = sext i32 %27 to i64
  %29 = getelementptr inbounds ptr, ptr %25, i64 %28
  %30 = icmp sgt i32 %27, 0
  br i1 %30, label %.lr.ph, label %._crit_edge

.lr.ph:                                           ; preds = %26, %39
  %.03853 = phi i32 [ %.1, %39 ], [ %27, %26 ]
  %.03952 = phi ptr [ %.140, %39 ], [ %25, %26 ]
  %31 = lshr i32 %.03853, 1
  %32 = zext nneg i32 %31 to i64
  %33 = getelementptr inbounds nuw ptr, ptr %.03952, i64 %32
  %34 = load ptr, ptr %33, align 8, !tbaa !28
  %35 = load ptr, ptr %34, align 8, !tbaa !57
  %36 = tail call i32 @strcmp(ptr noundef nonnull dereferenceable(1) %35, ptr noundef nonnull dereferenceable(1) %2) #8
  %37 = icmp eq i32 %36, 0
  br i1 %37, label %38, label %39

38:                                               ; preds = %.lr.ph
  store ptr %34, ptr %3, align 8, !tbaa !28
  br label %51

39:                                               ; preds = %.lr.ph
  %40 = icmp slt i32 %36, 0
  %41 = getelementptr inbounds nuw i8, ptr %33, i64 8
  %.neg = xor i32 %31, -1
  %42 = add nsw i32 %.03853, %.neg
  %.140 = select i1 %40, ptr %41, ptr %.03952
  %.1 = select i1 %40, i32 %42, i32 %31
  %43 = icmp sgt i32 %.1, 0
  br i1 %43, label %.lr.ph, label %._crit_edge, !llvm.loop !61

._crit_edge:                                      ; preds = %39, %26
  %.039.lcssa = phi ptr [ %25, %26 ], [ %.140, %39 ]
  %44 = icmp ult ptr %.039.lcssa, %29
  br i1 %44, label %45, label %51

45:                                               ; preds = %._crit_edge
  %46 = load ptr, ptr %.039.lcssa, align 8, !tbaa !28
  %47 = load ptr, ptr %46, align 8, !tbaa !57
  %48 = tail call i32 @strcmp(ptr noundef nonnull dereferenceable(1) %47, ptr noundef nonnull dereferenceable(1) %2) #8
  %49 = icmp eq i32 %48, 0
  br i1 %49, label %50, label %51

50:                                               ; preds = %45
  store ptr %46, ptr %3, align 8, !tbaa !28
  br label %51

51:                                               ; preds = %23, %45, %._crit_edge, %4, %50, %38, %19, %14, %6
  %.0 = phi i32 [ %17, %14 ], [ 0, %38 ], [ 0, %50 ], [ %22, %19 ], [ %9, %6 ], [ 2, %4 ], [ 15, %._crit_edge ], [ 15, %45 ], [ 15, %23 ]
  ret i32 %.0
}